; ModuleID = '14/877.c'
source_filename = "14/877.c"
target datalayout = "e-m:e-p270:32:32-p271:32:32-p272:64:64-i64:64-f80:128-n8:16:32:64-S128"
target triple = "x86_64-pc-linux-gnu"

%struct.student = type { i32, i32, i32, i32 }

@.str = private unnamed_addr constant [3 x i8] c"%d\00", align 1
@.str.1 = private unnamed_addr constant [9 x i8] c"%d %d %d\00", align 1
@st = common dso_local global [100000 x %struct.student] zeroinitializer, align 16
@t = common dso_local global %struct.student zeroinitializer, align 4
@.str.2 = private unnamed_addr constant [7 x i8] c"%d %d\0A\00", align 1

; Function Attrs: noinline nounwind uwtable
define dso_local void @main() #0 {
  %1 = alloca i32, align 4
  %2 = alloca i32, align 4
  %3 = alloca i32, align 4
  %4 = call i32 (i8*, ...) @__isoc99_scanf(i8* getelementptr inbounds ([3 x i8], [3 x i8]* @.str, i64 0, i64 0), i32* %3)
  store i32 0, i32* %1, align 4
  br label %5

5:                                                ; preds = %38, %0
  %6 = load i32, i32* %1, align 4
  %7 = load i32, i32* %3, align 4
  %8 = icmp slt i32 %6, %7
  br i1 %8, label %9, label %41

9:                                                ; preds = %5
  %10 = load i32, i32* %1, align 4
  %11 = sext i32 %10 to i64
  %12 = getelementptr inbounds [100000 x %struct.student], [100000 x %struct.student]* @st, i64 0, i64 %11
  %13 = getelementptr inbounds %struct.student, %struct.student* %12, i32 0, i32 0
  %14 = load i32, i32* %1, align 4
  %15 = sext i32 %14 to i64
  %16 = getelementptr inbounds [100000 x %struct.student], [100000 x %struct.student]* @st, i64 0, i64 %15
  %17 = getelementptr inbounds %struct.student, %struct.student* %16, i32 0, i32 1
  %18 = load i32, i32* %1, align 4
  %19 = sext i32 %18 to i64
  %20 = getelementptr inbounds [100000 x %struct.student], [100000 x %struct.student]* @st, i64 0, i64 %19
  %21 = getelementptr inbounds %struct.student, %struct.student* %20, i32 0, i32 2
  %22 = call i32 (i8*, ...) @__isoc99_scanf(i8* getelementptr inbounds ([9 x i8], [9 x i8]* @.str.1, i64 0, i64 0), i32* %13, i32* %17, i32* %21)
  %23 = load i32, i32* %1, align 4
  %24 = sext i32 %23 to i64
  %25 = getelementptr inbounds [100000 x %struct.student], [100000 x %struct.student]* @st, i64 0, i64 %24
  %26 = getelementptr inbounds %struct.student, %struct.student* %25, i32 0, i32 1
  %27 = load i32, i32* %26, align 4
  %28 = load i32, i32* %1, align 4
  %29 = sext i32 %28 to i64
  %30 = getelementptr inbounds [100000 x %struct.student], [100000 x %struct.student]* @st, i64 0, i64 %29
  %31 = getelementptr inbounds %struct.student, %struct.student* %30, i32 0, i32 2
  %32 = load i32, i32* %31, align 8
  %33 = add nsw i32 %27, %32
  %34 = load i32, i32* %1, align 4
  %35 = sext i32 %34 to i64
  %36 = getelementptr inbounds [100000 x %struct.student], [100000 x %struct.student]* @st, i64 0, i64 %35
  %37 = getelementptr inbounds %struct.student, %struct.student* %36, i32 0, i32 3
  store i32 %33, i32* %37, align 4
  br label %38

38:                                               ; preds = %9
  %39 = load i32, i32* %1, align 4
  %40 = add nsw i32 %39, 1
  store i32 %40, i32* %1, align 4
  br label %5

41:                                               ; preds = %5
  store i32 0, i32* %1, align 4
  br label %42

42:                                               ; preds = %87, %41
  %43 = load i32, i32* %1, align 4
  %44 = icmp slt i32 %43, 3
  br i1 %44, label %45, label %90

45:                                               ; preds = %42
  %46 = load i32, i32* %3, align 4
  store i32 %46, i32* %2, align 4
  br label %47

47:                                               ; preds = %83, %45
  %48 = load i32, i32* %2, align 4
  %49 = icmp sge i32 %48, 1
  br i1 %49, label %50, label %86

50:                                               ; preds = %47
  %51 = load i32, i32* %2, align 4
  %52 = sext i32 %51 to i64
  %53 = getelementptr inbounds [100000 x %struct.student], [100000 x %struct.student]* @st, i64 0, i64 %52
  %54 = getelementptr inbounds %struct.student, %struct.student* %53, i32 0, i32 3
  %55 = load i32, i32* %54, align 4
  %56 = load i32, i32* %2, align 4
  %57 = sub nsw i32 %56, 1
  %58 = sext i32 %57 to i64
  %59 = getelementptr inbounds [100000 x %struct.student], [100000 x %struct.student]* @st, i64 0, i64 %58
  %60 = getelementptr inbounds %struct.student, %struct.student* %59, i32 0, i32 3
  %61 = load i32, i32* %60, align 4
  %62 = icmp sgt i32 %55, %61
  br i1 %62, label %63, label %82

63:                                               ; preds = %50
  %64 = load i32, i32* %2, align 4
  %65 = sub nsw i32 %64, 1
  %66 = sext i32 %65 to i64
  %67 = getelementptr inbounds [100000 x %struct.student], [100000 x %struct.student]* @st, i64 0, i64 %66
  %68 = bitcast %struct.student* %67 to i8*
  call void @llvm.memcpy.p0i8.p0i8.i64(i8* align 4 bitcast (%struct.student* @t to i8*), i8* align 16 %68, i64 16, i1 false)
  %69 = load i32, i32* %2, align 4
  %70 = sub nsw i32 %69, 1
  %71 = sext i32 %70 to i64
  %72 = getelementptr inbounds [100000 x %struct.student], [100000 x %struct.student]* @st, i64 0, i64 %71
  %73 = load i32, i32* %2, align 4
  %74 = sext i32 %73 to i64
  %75 = getelementptr inbounds [100000 x %struct.student], [100000 x %struct.student]* @st, i64 0, i64 %74
  %76 = bitcast %struct.student* %72 to i8*
  %77 = bitcast %struct.student* %75 to i8*
  call void @llvm.memcpy.p0i8.p0i8.i64(i8* align 16 %76, i8* align 16 %77, i64 16, i1 false)
  %78 = load i32, i32* %2, align 4
  %79 = sext i32 %78 to i64
  %80 = getelementptr inbounds [100000 x %struct.student], [100000 x %struct.student]* @st, i64 0, i64 %79
  %81 = bitcast %struct.student* %80 to i8*
  call void @llvm.memcpy.p0i8.p0i8.i64(i8* align 16 %81, i8* align 4 bitcast (%struct.student* @t to i8*), i64 16, i1 false)
  br label %82

82:                                               ; preds = %63, %50
  br label %83

83:                                               ; preds = %82
  %84 = load i32, i32* %2, align 4
  %85 = add nsw i32 %84, -1
  store i32 %85, i32* %2, align 4
  br label %47

86:                                               ; preds = %47
  br label %87

87:                                               ; preds = %86
  %88 = load i32, i32* %1, align 4
  %89 = add nsw i32 %88, 1
  store i32 %89, i32* %1, align 4
  br label %42

90:                                               ; preds = %42
  store i32 0, i32* %1, align 4
  br label %91

91:                                               ; preds = %106, %90
  %92 = load i32, i32* %1, align 4
  %93 = icmp slt i32 %92, 3
  br i1 %93, label %94, label %109

94:                                               ; preds = %91
  %95 = load i32, i32* %1, align 4
  %96 = sext i32 %95 to i64
  %97 = getelementptr inbounds [100000 x %struct.student], [100000 x %struct.student]* @st, i64 0, i64 %96
  %98 = getelementptr inbounds %struct.student, %struct.student* %97, i32 0, i32 0
  %99 = load i32, i32* %98, align 16
  %100 = load i32, i32* %1, align 4
  %101 = sext i32 %100 to i64
  %102 = getelementptr inbounds [100000 x %struct.student], [100000 x %struct.student]* @st, i64 0, i64 %101
  %103 = getelementptr inbounds %struct.student, %struct.student* %102, i32 0, i32 3
  %104 = load i32, i32* %103, align 4
  %105 = call i32 (i8*, ...) @printf(i8* getelementptr inbounds ([7 x i8], [7 x i8]* @.str.2, i64 0, i64 0), i32 %99, i32 %104)
  br label %106

106:                                              ; preds = %94
  %107 = load i32, i32* %1, align 4
  %108 = add nsw i32 %107, 1
  store i32 %108, i32* %1, align 4
  br label %91

109:                                              ; preds = %91
  ret void
}

declare dso_local i32 @__isoc99_scanf(i8*, ...) #1

; Function Attrs: argmemonly nounwind willreturn
declare void @llvm.memcpy.p0i8.p0i8.i64(i8* noalias nocapture writeonly, i8* noalias nocapture readonly, i64, i1 immarg) #2

declare dso_local i32 @printf(i8*, ...) #1


!llvm.module.flags = !{!0}
!llvm.ident = !{!1}

!0 = !{i32 1, !"wchar_size", i32 4}
!1 = !{!"clang version 10.0.0-4ubuntu1 "}
